target datalayout = "e-m:e-p270:32:32-p271:32:32-p272:64:64-i64:64-i128:128-f80:128-n8:16:32:64-S128"
target triple = "x86_64-pc-linux-gnu"

@.str.73 = private unnamed_addr constant [8 x i8] c"\00KMGTP\00\00", align 1

; Function Attrs: inlinehint nounwind willreturn memory(read) uwtable
define available_externally i32 @atoi(ptr noundef nonnull %0) #6 {
  %2 = alloca ptr, align 8
  store ptr %0, ptr %2, align 8
  %3 = load ptr, ptr %2, align 8
  %4 = call i64 @strtol(ptr noundef %3, ptr noundef null, i32 noundef 10) #12
  %5 = trunc i64 %4 to i32
  ret i32 %5
}

; Function Attrs: inlinehint nounwind willreturn memory(read) uwtable
define available_externally i32 @toupper(i32 noundef %0) #6 {
  %2 = alloca i32, align 4
  store i32 %0, ptr %2, align 4
  %3 = load i32, ptr %2, align 4
  %4 = icmp sge i32 %3, -128
  br i1 %4, label %5, label %15

5:                                                ; preds = %1
  %6 = load i32, ptr %2, align 4
  %7 = icmp slt i32 %6, 256
  br i1 %7, label %8, label %15

8:                                                ; preds = %5
  %9 = call ptr @__ctype_toupper_loc() #14
  %10 = load ptr, ptr %9, align 8
  %11 = load i32, ptr %2, align 4
  %12 = sext i32 %11 to i64
  %13 = getelementptr inbounds i32, ptr %10, i64 %12
  %14 = load i32, ptr %13, align 4
  br label %17

15:                                               ; preds = %5, %1
  %16 = load i32, ptr %2, align 4
  br label %17

17:                                               ; preds = %15, %8
  %18 = phi i32 [ %14, %8 ], [ %16, %15 ]
  ret i32 %18
}

; Function Attrs: nounwind uwtable
define dso_local i32 @revert_num_unit(ptr noundef %0) #0 {
  %2 = alloca i32, align 4
  %3 = alloca ptr, align 8
  %4 = alloca ptr, align 8
  %5 = alloca i32, align 4
  %6 = alloca i32, align 4
  %7 = alloca i32, align 4
  %8 = alloca i32, align 4
  %9 = alloca i32, align 4
  %10 = alloca i32, align 4
  %11 = alloca i32, align 4
  store ptr %0, ptr %3, align 8
  call void @llvm.lifetime.start.p0(i64 8, ptr %4) #12
  store ptr @.str.73, ptr %4, align 8
  call void @llvm.lifetime.start.p0(i64 4, ptr %5) #12
  store i32 1, ptr %5, align 4
  call void @llvm.lifetime.start.p0(i64 4, ptr %6) #12
  store i32 0, ptr %6, align 4
  call void @llvm.lifetime.start.p0(i64 4, ptr %7) #12
  store i32 0, ptr %7, align 4
  %12 = load ptr, ptr %3, align 8
  %13 = icmp ne ptr %12, null
  br i1 %13, label %15, label %14

14:                                               ; preds = %1
  store i32 -1, ptr %2, align 4
  store i32 1, ptr %8, align 4
  br label %96

15:                                               ; preds = %1
  %16 = load ptr, ptr %3, align 8
  %17 = call i64 @strlen(ptr noundef %16) #13
  %18 = sub i64 %17, 1
  %19 = trunc i64 %18 to i32
  store i32 %19, ptr %6, align 4
  br label %20

20:                                               ; preds = %77, %15
  %21 = load ptr, ptr %4, align 8
  %22 = load i32, ptr %5, align 4
  %23 = sext i32 %22 to i64
  %24 = getelementptr inbounds i8, ptr %21, i64 %23
  %25 = load i8, ptr %24, align 1
  %26 = icmp ne i8 %25, 0
  br i1 %26, label %27, label %80

27:                                               ; preds = %20
  call void @llvm.lifetime.start.p0(i64 4, ptr %9) #12
  %28 = load ptr, ptr %3, align 8
  %29 = load i32, ptr %6, align 4
  %30 = sext i32 %29 to i64
  %31 = getelementptr inbounds i8, ptr %28, i64 %30
  %32 = load i8, ptr %31, align 1
  %33 = sext i8 %32 to i32
  %34 = call i1 @llvm.is.constant.i32(i32 %33)
  br i1 %34, label %35, label %58

35:                                               ; preds = %27
  call void @llvm.lifetime.start.p0(i64 4, ptr %10) #12
  %36 = load ptr, ptr %3, align 8
  %37 = load i32, ptr %6, align 4
  %38 = sext i32 %37 to i64
  %39 = getelementptr inbounds i8, ptr %36, i64 %38
  %40 = load i8, ptr %39, align 1
  %41 = sext i8 %40 to i32
  store i32 %41, ptr %10, align 4
  %42 = load i32, ptr %10, align 4
  %43 = icmp slt i32 %42, -128
  br i1 %43, label %47, label %44

44:                                               ; preds = %35
  %45 = load i32, ptr %10, align 4
  %46 = icmp sgt i32 %45, 255
  br i1 %46, label %47, label %49

47:                                               ; preds = %44, %35
  %48 = load i32, ptr %10, align 4
  br label %56

49:                                               ; preds = %44
  %50 = call ptr @__ctype_toupper_loc() #14
  %51 = load ptr, ptr %50, align 8
  %52 = load i32, ptr %10, align 4
  %53 = sext i32 %52 to i64
  %54 = getelementptr inbounds i32, ptr %51, i64 %53
  %55 = load i32, ptr %54, align 4
  br label %56

56:                                               ; preds = %49, %47
  %57 = phi i32 [ %48, %47 ], [ %55, %49 ]
  store i32 %57, ptr %9, align 4
  call void @llvm.lifetime.end.p0(i64 4, ptr %10) #12
  br label %66

58:                                               ; preds = %27
  %59 = load ptr, ptr %3, align 8
  %60 = load i32, ptr %6, align 4
  %61 = sext i32 %60 to i64
  %62 = getelementptr inbounds i8, ptr %59, i64 %61
  %63 = load i8, ptr %62, align 1
  %64 = sext i8 %63 to i32
  %65 = call i32 @toupper(i32 noundef %64) #13
  store i32 %65, ptr %9, align 4
  br label %66

66:                                               ; preds = %58, %56
  %67 = load i32, ptr %9, align 4
  store i32 %67, ptr %11, align 4
  call void @llvm.lifetime.end.p0(i64 4, ptr %9) #12
  %68 = load i32, ptr %11, align 4
  %69 = load ptr, ptr %4, align 8
  %70 = load i32, ptr %5, align 4
  %71 = sext i32 %70 to i64
  %72 = getelementptr inbounds i8, ptr %69, i64 %71
  %73 = load i8, ptr %72, align 1
  %74 = sext i8 %73 to i32
  %75 = icmp eq i32 %68, %74
  br i1 %75, label %76, label %77

76:                                               ; preds = %66
  br label %80

77:                                               ; preds = %66
  %78 = load i32, ptr %5, align 4
  %79 = add nsw i32 %78, 1
  store i32 %79, ptr %5, align 4
  br label %20, !llvm.loop !14

80:                                               ; preds = %76, %20
  %81 = load ptr, ptr %3, align 8
  %82 = call i32 @atoi(ptr noundef %81) #13
  store i32 %82, ptr %7, align 4
  %83 = load ptr, ptr %4, align 8
  %84 = load i32, ptr %5, align 4
  %85 = sext i32 %84 to i64
  %86 = getelementptr inbounds i8, ptr %83, i64 %85
  %87 = load i8, ptr %86, align 1
  %88 = icmp ne i8 %87, 0
  br i1 %88, label %89, label %94

89:                                               ; preds = %80
  %90 = load i32, ptr %5, align 4
  %91 = mul nsw i32 %90, 1024
  %92 = load i32, ptr %7, align 4
  %93 = mul nsw i32 %92, %91
  store i32 %93, ptr %7, align 4
  br label %94

94:                                               ; preds = %89, %80
  %95 = load i32, ptr %7, align 4
  store i32 %95, ptr %2, align 4
  store i32 1, ptr %8, align 4
  br label %96

96:                                               ; preds = %94, %14
  call void @llvm.lifetime.end.p0(i64 4, ptr %7) #12
  call void @llvm.lifetime.end.p0(i64 4, ptr %6) #12
  call void @llvm.lifetime.end.p0(i64 4, ptr %5) #12
  call void @llvm.lifetime.end.p0(i64 8, ptr %4) #12
  %97 = load i32, ptr %2, align 4
  ret i32 %97
}